Certificate:
    Data:
        Version: 3 (0x2)
        Serial Number:
            57:c1:9a:ad:e9:3a:1d:0b:4b:5d:2a:ce:81:f3:a2:c9
        Signature Algorithm: sha256WithRSAEncryption
        Issuer: C=ID, ST=Jawa Barat, L=Kabupaten Bandung, O=FikriRP Tech, CN=friansh PersonalCert Root CA
        Validity
            Not Before: Jul 20 00:00:00 2021 GMT
            Not After : Jul 22 00:00:00 2031 GMT
        Subject: C=ID, ST=Jawa Barat, L=Kabupaten Bandung, O=FikriRP Tech, CN=friansh PersonalCert Root CA
        Subject Public Key Info:
            Public Key Algorithm: rsaEncryption
                RSA Public-Key: (4096 bit)
                Modulus:
                    00:b2:6d:0e:5b:72:47:f3:6e:ea:ea:8f:f9:d0:a0:
                    75:4f:1d:35:d8:7c:11:71:a5:c4:6c:7d:e3:7b:de:
                    a2:72:ea:64:e6:a9:62:0f:de:10:d8:72:73:94:9f:
                    57:ab:68:b8:de:42:31:26:8b:fa:49:2c:6e:44:a9:
                    73:99:9a:71:8b:ee:f1:07:92:a4:c4:8c:8b:db:12:
                    cd:95:b9:fd:b8:61:6a:b6:8f:dd:10:57:ca:94:c8:
                    91:89:a5:ce:42:2f:f0:fb:59:cd:a8:bc:45:8c:2f:
                    68:5e:47:aa:ba:33:b4:ff:8b:05:5e:3b:56:c9:1f:
                    1e:34:72:60:ba:dc:a0:73:c1:d1:0f:e0:8b:20:8d:
                    c9:fb:a8:9e:cd:d3:08:2e:fc:6c:dc:14:3b:4e:1f:
                    75:6b:56:45:9e:fc:ed:cb:87:c9:29:cb:c5:da:f6:
                    79:f2:88:a1:51:18:b4:72:2f:d9:90:64:d0:69:97:
                    71:0f:f0:29:19:6c:b2:6b:ee:41:1f:b6:ff:04:1c:
                    50:c5:51:a2:6c:2e:d8:7d:3a:0a:dd:e6:3b:7b:24:
                    42:ac:b1:33:e9:c5:2c:54:23:3f:5a:3d:56:3d:48:
                    ad:fc:e5:c2:eb:42:e9:05:40:c2:1b:3c:7e:29:59:
                    7b:ed:f9:42:8d:d8:b2:b3:6f:4a:1b:d5:a8:2c:8a:
                    fd:df:76:50:b6:80:61:0b:e0:dd:9a:94:47:01:7c:
                    35:8f:7e:77:1d:91:08:88:86:19:30:d4:01:cc:9a:
                    06:58:49:ac:9c:e6:f1:a4:5a:8d:45:d2:16:21:e2:
                    ef:5f:e2:47:ab:63:f6:d4:9c:b3:27:6f:8e:95:98:
                    04:97:9e:ea:28:0a:9b:90:a4:c9:a7:ed:bd:f9:10:
                    f3:a7:61:e4:f8:73:78:3c:d0:18:1f:fa:80:a2:27:
                    f7:fc:d3:ad:17:a3:e6:4f:76:b6:7e:5a:12:c4:3d:
                    95:c1:66:22:9f:ed:f3:d8:ab:95:8e:8a:33:c0:21:
                    83:2b:84:e7:dd:ec:81:7a:5b:11:40:fb:a2:61:93:
                    6c:8e:e0:de:cb:b2:a4:4a:0f:66:28:9b:7e:3f:24:
                    42:90:f8:b3:8e:c4:c7:f1:3c:aa:b8:82:17:df:35:
                    25:ef:d5:84:cd:72:4e:98:25:cf:08:db:db:8b:4e:
                    63:e6:ff:dc:c5:1e:f1:77:a8:e7:14:4a:4c:c2:51:
                    22:3f:6b:f5:a7:69:1d:81:95:18:27:03:53:2c:4d:
                    6d:28:03:2f:00:f2:fc:eb:10:26:51:1a:c1:19:b0:
                    b2:27:1e:32:76:c4:9a:9c:6c:b8:5f:e9:12:0d:53:
                    b9:68:1e:8a:cc:62:bf:6b:70:08:5d:d4:eb:a7:0f:
                    d8:0f:61
                Exponent: 65537 (0x10001)
        X509v3 extensions:
            X509v3 Basic Constraints: critical
                CA:TRUE
            X509v3 Key Usage: critical
                Certificate Sign, CRL Sign
            X509v3 Subject Key Identifier: 
                CF:59:0F:18:4A:84:3D:C9:CD:04:A9:4B:53:BC:49:09:FE:E9:36:31
            X509v3 Subject Alternative Name: 
                URI:http://ca.fikrirp.com/, email:certmaster@fikrirp.com
            X509v3 Authority Key Identifier: 
                keyid:CF:59:0F:18:4A:84:3D:C9:CD:04:A9:4B:53:BC:49:09:FE:E9:36:31

            X509v3 Issuer Alternative Name: 
                URI:http://ca.fikrirp.com/, email:certmaster@fikrirp.com
            Authority Information Access: 
                CA Issuers - URI:http://ca.fikrirp.com/certs/friansh_personalcert_root_ca.crt

            X509v3 CRL Distribution Points: 

                Full Name:
                  URI:http://ca.fikrirp.com/crl/friansh_personalcert_root_ca.crl

    Signature Algorithm: sha256WithRSAEncryption
         7d:b7:7e:12:c9:10:19:5d:2d:a7:9d:d8:7d:91:0c:41:1a:4b:
         a5:c7:f1:a0:32:75:09:11:7a:fb:ce:27:0a:3d:ac:9d:de:54:
         63:cf:e1:3b:02:8b:05:28:84:b5:d6:01:c7:8f:64:b8:3e:d1:
         64:16:c9:3b:e0:f4:82:05:cb:c5:d9:e4:c6:e6:38:26:e2:ac:
         2a:aa:07:2a:f2:16:ac:68:d4:24:d1:7f:b6:d9:90:86:8f:35:
         c7:fb:c1:38:c1:34:cb:4f:38:43:f3:26:6c:b2:9c:ea:02:99:
         f4:ac:c6:a3:83:a7:cd:e1:ea:7f:9d:50:e5:e9:d5:4c:fe:4e:
         14:30:d4:a4:5d:14:2e:bf:2a:63:4b:3b:17:f8:8a:f3:c5:cd:
         1b:30:f4:ef:08:28:34:36:13:f2:83:07:9f:56:d8:c3:27:ec:
         95:09:ea:92:7c:e5:97:f8:19:ae:80:64:1a:73:e8:fb:cb:72:
         f4:98:36:4b:10:70:e1:b4:3c:dc:5a:0b:8a:2a:b1:72:2f:42:
         28:b6:e9:1c:f8:04:4a:0b:3d:e2:21:5a:b7:1d:d0:9e:15:ed:
         28:7e:8b:17:fc:56:84:15:18:4e:5e:9b:89:5a:87:ff:49:fd:
         27:de:51:e7:ff:1c:7f:35:f4:b7:86:67:3c:57:fe:cf:71:5c:
         79:13:99:b6:1e:ac:7d:ab:26:1a:3d:3e:bd:c3:40:b4:5f:b1:
         16:9d:0f:80:1c:b0:ca:a4:99:47:ce:a4:e7:cd:f2:07:d5:9c:
         ca:93:a9:24:f8:be:b0:9e:74:7c:e7:36:ed:5a:e6:3c:71:2d:
         78:7a:9c:cd:e1:9e:eb:35:71:22:2f:a6:05:03:7f:19:b9:ef:
         b4:19:d0:15:dc:57:89:53:3a:14:dd:d3:f8:89:81:3f:6e:1a:
         51:5c:92:41:50:6e:3e:e2:85:7f:be:7e:db:ea:28:02:08:0c:
         d3:e1:0c:0f:3c:09:b9:17:98:e7:9f:8e:cc:ec:73:ad:b2:95:
         7b:2a:66:d9:82:8c:2a:a0:e0:cf:de:28:72:32:02:c4:be:fc:
         31:67:e5:43:db:bb:03:4b:33:0b:ca:2f:99:87:c5:6e:74:61:
         6e:73:c0:42:9b:b0:d6:b8:fd:5b:5d:5c:da:40:67:5a:0d:1a:
         64:c5:b6:57:a1:c5:b9:11:65:e4:63:16:ef:27:e8:c0:10:4b:
         89:e6:1f:62:bb:67:43:cf:62:b6:9e:23:60:43:7a:fb:d4:d9:
         a9:fc:5b:14:90:15:4f:1c:ee:aa:1d:ca:cc:d4:f6:ce:87:e8:
         91:57:25:24:19:a9:5f:85:de:58:e1:ae:9a:6b:21:8f:e9:03:
         77:e8:78:ab:cf:70:99:87
-----BEGIN CERTIFICATE-----
MIIHBjCCBO6gAwIBAgIQV8Garek6HQtLXSrOgfOiyTANBgkqhkiG9w0BAQsFADB8
MQswCQYDVQQGEwJJRDETMBEGA1UECAwKSmF3YSBCYXJhdDEaMBgGA1UEBwwRS2Fi
dXBhdGVuIEJhbmR1bmcxFTATBgNVBAoMDEZpa3JpUlAgVGVjaDElMCMGA1UEAwwc
ZnJpYW5zaCBQZXJzb25hbENlcnQgUm9vdCBDQTAeFw0yMTA3MjAwMDAwMDBaFw0z
MTA3MjIwMDAwMDBaMHwxCzAJBgNVBAYTAklEMRMwEQYDVQQIDApKYXdhIEJhcmF0
MRowGAYDVQQHDBFLYWJ1cGF0ZW4gQmFuZHVuZzEVMBMGA1UECgwMRmlrcmlSUCBU
ZWNoMSUwIwYDVQQDDBxmcmlhbnNoIFBlcnNvbmFsQ2VydCBSb290IENBMIICIjAN
BgkqhkiG9w0BAQEFAAOCAg8AMIICCgKCAgEAsm0OW3JH827q6o/50KB1Tx012HwR
caXEbH3je96icupk5qliD94Q2HJzlJ9Xq2i43kIxJov6SSxuRKlzmZpxi+7xB5Kk
xIyL2xLNlbn9uGFqto/dEFfKlMiRiaXOQi/w+1nNqLxFjC9oXkequjO0/4sFXjtW
yR8eNHJgutygc8HRD+CLII3J+6iezdMILvxs3BQ7Th91a1ZFnvzty4fJKcvF2vZ5
8oihURi0ci/ZkGTQaZdxD/ApGWyya+5BH7b/BBxQxVGibC7YfToK3eY7eyRCrLEz
6cUsVCM/Wj1WPUit/OXC60LpBUDCGzx+KVl77flCjdiys29KG9WoLIr933ZQtoBh
C+DdmpRHAXw1j353HZEIiIYZMNQBzJoGWEmsnObxpFqNRdIWIeLvX+JHq2P21Jyz
J2+OlZgEl57qKAqbkKTJp+29+RDzp2Hk+HN4PNAYH/qAoif3/NOtF6PmT3a2floS
xD2VwWYin+3z2KuVjoozwCGDK4Tn3eyBelsRQPuiYZNsjuDey7KkSg9mKJt+PyRC
kPizjsTH8TyquIIX3zUl79WEzXJOmCXPCNvbi05j5v/cxR7xd6jnFEpMwlEiP2v1
p2kdgZUYJwNTLE1tKAMvAPL86xAmURrBGbCyJx4ydsSanGy4X+kSDVO5aB6KzGK/
a3AIXdTrpw/YD2ECAwEAAaOCAYIwggF+MA8GA1UdEwEB/wQFMAMBAf8wDgYDVR0P
AQH/BAQDAgEGMB0GA1UdDgQWBBTPWQ8YSoQ9yc0EqUtTvEkJ/uk2MTA5BgNVHREE
MjAwhhZodHRwOi8vY2EuZmlrcmlycC5jb20vgRZjZXJ0bWFzdGVyQGZpa3JpcnAu
Y29tMB8GA1UdIwQYMBaAFM9ZDxhKhD3JzQSpS1O8SQn+6TYxMDkGA1UdEgQyMDCG
Fmh0dHA6Ly9jYS5maWtyaXJwLmNvbS+BFmNlcnRtYXN0ZXJAZmlrcmlycC5jb20w
WAYIKwYBBQUHAQEETDBKMEgGCCsGAQUFBzAChjxodHRwOi8vY2EuZmlrcmlycC5j
b20vY2VydHMvZnJpYW5zaF9wZXJzb25hbGNlcnRfcm9vdF9jYS5jcnQwSwYDVR0f
BEQwQjBAoD6gPIY6aHR0cDovL2NhLmZpa3JpcnAuY29tL2NybC9mcmlhbnNoX3Bl
cnNvbmFsY2VydF9yb290X2NhLmNybDANBgkqhkiG9w0BAQsFAAOCAgEAfbd+EskQ
GV0tp53YfZEMQRpLpcfxoDJ1CRF6+84nCj2snd5UY8/hOwKLBSiEtdYBx49kuD7R
ZBbJO+D0ggXLxdnkxuY4JuKsKqoHKvIWrGjUJNF/ttmQho81x/vBOME0y084Q/Mm
bLKc6gKZ9KzGo4OnzeHqf51Q5enVTP5OFDDUpF0ULr8qY0s7F/iK88XNGzD07wgo
NDYT8oMHn1bYwyfslQnqknzll/gZroBkGnPo+8ty9Jg2SxBw4bQ83FoLiiqxci9C
KLbpHPgESgs94iFatx3QnhXtKH6LF/xWhBUYTl6biVqH/0n9J95R5/8cfzX0t4Zn
PFf+z3FceROZth6sfasmGj0+vcNAtF+xFp0PgBywyqSZR86k583yB9WcypOpJPi+
sJ50fOc27VrmPHEteHqczeGe6zVxIi+mBQN/GbnvtBnQFdxXiVM6FN3T+ImBP24a
UVySQVBuPuKFf75+2+ooAggM0+EMDzwJuReY55+OzOxzrbKVeypm2YKMKqDgz94o
cjICxL78MWflQ9u7A0szC8ovmYfFbnRhbnPAQpuw1rj9W11c2kBnWg0aZMW2V6HF
uRFl5GMW7yfowBBLieYfYrtnQ89itp4jYEN6+9TZqfxbFJAVTxzuqh3KzNT2zofo
kVclJBmpX4XeWOGummshj+kDd+h4q89wmYc=
-----END CERTIFICATE-----
