Certificate:
    Data:
        Version: 3 (0x2)
        Serial Number:
            20:b0:10:62:21:db:b8:1b:a7:ad:39:11:e4:d7:2d:9c
        Signature Algorithm: sha256WithRSAEncryption
        Issuer: O=FikriRP Tech, CN=fNet MQTT Intermediate Certification Authorities (ICA)
        Validity
            Not Before: Jul 26 18:58:01 2021 GMT
            Not After : Aug 26 18:58:01 2022 GMT
        Subject: CN=smartfarmer-client-raspi
        Subject Public Key Info:
            Public Key Algorithm: rsaEncryption
                RSA Public-Key: (2048 bit)
                Modulus:
                    00:a7:b0:ad:c7:c2:1f:94:ad:76:01:df:1f:73:cb:
                    ca:ee:cb:a9:2a:fc:2f:a2:65:4d:43:1e:70:15:a4:
                    1a:0f:51:fe:c1:15:72:48:cb:a2:c6:24:76:d6:76:
                    a8:eb:ef:b2:db:eb:08:1a:a5:92:20:ff:c1:43:ca:
                    0e:c3:40:26:c7:5b:db:a3:c4:09:f4:f9:54:a0:02:
                    d8:64:3a:6b:e1:0c:90:c2:d0:a3:f3:6d:d3:ad:c8:
                    b8:bb:2a:08:d1:45:90:b7:67:5a:0a:a3:92:06:76:
                    95:77:eb:08:a4:6b:ab:ca:af:a2:b6:70:28:19:bf:
                    5d:a7:97:19:f2:2b:f9:c4:e7:19:7f:a9:f8:dc:11:
                    c6:89:6c:7b:71:5b:7e:a4:fb:94:00:44:d2:7c:53:
                    d7:7a:19:91:af:38:67:0c:aa:c5:61:60:18:0e:07:
                    11:e7:09:fe:3d:58:ef:0a:b7:72:23:81:52:4e:4b:
                    9c:cb:77:25:a6:dd:6b:61:f4:19:49:7b:8f:27:43:
                    86:df:e9:f9:ea:50:f3:9a:4a:97:61:16:fb:f7:a7:
                    0a:cb:76:5c:6e:77:c8:bf:94:c7:0a:74:63:48:ba:
                    11:c7:18:63:52:1e:f6:9f:ce:66:ee:e2:b1:60:02:
                    5a:0d:ab:38:63:91:40:c6:5d:50:9f:53:6a:b4:ce:
                    c6:4b
                Exponent: 65537 (0x10001)
        X509v3 extensions:
            X509v3 Basic Constraints: 
                CA:FALSE
            X509v3 Key Usage: critical
                Digital Signature
            X509v3 Extended Key Usage: critical
                TLS Web Client Authentication
            X509v3 Subject Key Identifier: 
                55:E2:40:7F:56:20:89:71:48:4D:43:C8:E3:E0:4C:06:75:81:04:A8
            X509v3 Authority Key Identifier: 
                keyid:30:D8:19:74:9B:AA:0F:FD:FC:B1:F1:3C:B7:20:0E:94:14:50:F0:DD

            X509v3 Issuer Alternative Name: 
                URI:http://ca.fikrirp.com/, email:certmaster@fikrirp.com
            Authority Information Access: 
                CA Issuers - URI:http://ca.fikrirp.com/certs/fnet_mqtt_ica.crt

            X509v3 CRL Distribution Points: 

                Full Name:
                  URI:http://ca.fikrirp.com/crl/fnet_mqtt_ica.crl

    Signature Algorithm: sha256WithRSAEncryption
         7d:73:69:e3:d5:19:92:64:b5:de:10:81:bd:20:1b:ae:c9:1c:
         66:18:ef:87:e1:da:3f:5d:48:c0:0f:f4:84:b8:3e:90:73:59:
         66:e0:2b:d4:57:ae:c9:f9:32:a9:e9:27:2a:48:e8:f4:9f:b7:
         d7:96:75:ae:b6:aa:77:3f:d1:33:03:3e:de:17:3c:6c:99:8d:
         bc:ba:58:1d:99:ce:d7:a2:73:5d:46:56:bd:e3:54:4d:a9:ac:
         39:66:de:63:31:12:0e:67:4a:08:54:15:97:ea:0a:34:f7:59:
         79:b5:5d:22:12:44:b2:73:7e:12:3a:b9:d0:3e:7b:fe:f4:0e:
         be:f4:9d:00:9b:a4:36:95:d8:ff:97:02:1c:5e:73:69:30:97:
         09:82:9d:f3:f1:1d:3d:29:3f:24:2f:a6:8b:da:d1:e6:bb:e6:
         ea:32:54:94:12:2a:2b:3f:a8:90:78:07:85:a2:22:b5:a5:8c:
         71:ad:f5:2a:38:01:8d:20:7a:de:b7:79:f4:9b:1f:34:22:66:
         0b:70:2b:26:79:dc:15:60:f0:a3:62:da:c4:74:09:66:3f:48:
         ca:c0:c4:a8:a7:b9:57:99:01:a4:f9:b4:fe:de:8a:80:fa:a3:
         00:f5:4f:6f:14:28:f9:18:43:1f:09:46:5a:e9:89:48:aa:33:
         83:d5:69:62:24:9e:3f:ab:a8:85:8b:d4:0f:9f:43:98:9c:ac:
         6c:35:a6:d4:ee:ff:88:1f:7d:ab:44:74:39:ff:bf:54:e0:8d:
         d8:93:0b:13:76:19:52:9a:48:eb:ae:90:3b:42:a5:6a:76:6e:
         34:c3:cf:e0:55:21:95:c6:e3:85:69:13:b5:81:c6:e3:66:5b:
         8d:58:31:75:b2:be:92:65:a7:29:d8:56:d4:0f:f6:f1:33:94:
         35:a8:51:aa:c5:57:3b:5e:8d:e4:45:c9:a0:00:54:cc:1f:93:
         2a:84:bf:78:cc:89:0b:4b:31:c1:b1:42:5d:26:45:98:95:95:
         f7:f5:10:4a:46:9f
-----BEGIN CERTIFICATE-----
MIIEwjCCAyqgAwIBAgIQILAQYiHbuBunrTkR5NctnDANBgkqhkiG9w0BAQsFADBY
MRUwEwYDVQQKDAxGaWtyaVJQIFRlY2gxPzA9BgNVBAMMNmZOZXQgTVFUVCBJbnRl
cm1lZGlhdGUgQ2VydGlmaWNhdGlvbiBBdXRob3JpdGllcyAoSUNBKTAeFw0yMTA3
MjYxODU4MDFaFw0yMjA4MjYxODU4MDFaMCMxITAfBgNVBAMMGHNtYXJ0ZmFybWVy
LWNsaWVudC1yYXNwaTCCASIwDQYJKoZIhvcNAQEBBQADggEPADCCAQoCggEBAKew
rcfCH5StdgHfH3PLyu7LqSr8L6JlTUMecBWkGg9R/sEVckjLosYkdtZ2qOvvstvr
CBqlkiD/wUPKDsNAJsdb26PECfT5VKAC2GQ6a+EMkMLQo/Nt063IuLsqCNFFkLdn
WgqjkgZ2lXfrCKRrq8qvorZwKBm/XaeXGfIr+cTnGX+p+NwRxolse3FbfqT7lABE
0nxT13oZka84ZwyqxWFgGA4HEecJ/j1Y7wq3ciOBUk5LnMt3Jabda2H0GUl7jydD
ht/p+epQ85pKl2EW+/enCst2XG53yL+Uxwp0Y0i6EccYY1Ie9p/OZu7isWACWg2r
OGORQMZdUJ9TarTOxksCAwEAAaOCATswggE3MAkGA1UdEwQCMAAwDgYDVR0PAQH/
BAQDAgeAMBYGA1UdJQEB/wQMMAoGCCsGAQUFBwMCMB0GA1UdDgQWBBRV4kB/ViCJ
cUhNQ8jj4EwGdYEEqDAfBgNVHSMEGDAWgBQw2Bl0m6oP/fyx8Ty3IA6UFFDw3TA5
BgNVHRIEMjAwhhZodHRwOi8vY2EuZmlrcmlycC5jb20vgRZjZXJ0bWFzdGVyQGZp
a3JpcnAuY29tMEkGCCsGAQUFBwEBBD0wOzA5BggrBgEFBQcwAoYtaHR0cDovL2Nh
LmZpa3JpcnAuY29tL2NlcnRzL2ZuZXRfbXF0dF9pY2EuY3J0MDwGA1UdHwQ1MDMw
MaAvoC2GK2h0dHA6Ly9jYS5maWtyaXJwLmNvbS9jcmwvZm5ldF9tcXR0X2ljYS5j
cmwwDQYJKoZIhvcNAQELBQADggGBAH1zaePVGZJktd4Qgb0gG67JHGYY74fh2j9d
SMAP9IS4PpBzWWbgK9RXrsn5MqnpJypI6PSft9eWda62qnc/0TMDPt4XPGyZjby6
WB2Zzteic11GVr3jVE2prDlm3mMxEg5nSghUFZfqCjT3WXm1XSISRLJzfhI6udA+
e/70Dr70nQCbpDaV2P+XAhxec2kwlwmCnfPxHT0pPyQvpova0ea75uoyVJQSKis/
qJB4B4WiIrWljHGt9So4AY0get63efSbHzQiZgtwKyZ53BVg8KNi2sR0CWY/SMrA
xKinuVeZAaT5tP7eioD6owD1T28UKPkYQx8JRlrpiUiqM4PVaWIknj+rqIWL1A+f
Q5icrGw1ptTu/4gffatEdDn/v1TgjdiTCxN2GVKaSOuukDtCpWp2bjTDz+BVIZXG
44VpE7WBxuNmW41YMXWyvpJlpynYVtQP9vEzlDWoUarFVztejeRFyaAAVMwfkyqE
v3jMiQtLMcGxQl0mRZiVlff1EEpGnw==
-----END CERTIFICATE-----
